target datalayout = "e-m:e-p270:32:32-p271:32:32-p272:64:64-i64:64-i128:128-f80:128-n8:16:32:64-S128"
target triple = "x86_64-pc-linux-gnu"

%"class.std::logic_error" = type { %"class.std::exception", %"class.std::__1::__libcpp_refstring" }
%"class.std::exception" = type { ptr }
%"class.std::__1::__libcpp_refstring" = type { ptr }
%"struct.std::__1::__refstring_imp::(anonymous namespace)::_Rep_base" = type { i64, i64, i32 }

@_ZTVSt11logic_error = available_externally unnamed_addr constant { [5 x ptr] } { [5 x ptr] [ptr null, ptr @_ZTISt11logic_error, ptr @_ZNSt11logic_errorD1Ev, ptr @_ZNSt11logic_errorD0Ev, ptr @_ZNKSt11logic_error4whatEv] }, align 8
@_ZTVSt9exception = available_externally unnamed_addr constant { [5 x ptr] } { [5 x ptr] [ptr null, ptr @_ZTISt9exception, ptr @_ZNSt9exceptionD1Ev, ptr @_ZNSt9exceptionD0Ev, ptr @_ZNKSt9exception4whatEv] }, align 8

; Function Attrs: inlinehint mustprogress nounwind uwtable
define internal noundef ptr @_ZNSt3__115__refstring_imp12_GLOBAL__N_113data_from_repB8ne210000EPNS1_9_Rep_baseE(ptr noundef %0) #4 {
  %2 = alloca ptr, align 8
  %3 = alloca ptr, align 8
  store ptr %0, ptr %2, align 8, !tbaa !21
  call void @llvm.lifetime.start.p0(i64 8, ptr %3) #12
  %4 = load ptr, ptr %2, align 8, !tbaa !21
  store ptr %4, ptr %3, align 8, !tbaa !17
  %5 = load ptr, ptr %3, align 8, !tbaa !17
  %6 = getelementptr inbounds nuw i8, ptr %5, i64 24
  call void @llvm.lifetime.end.p0(i64 8, ptr %3) #12
  ret ptr %6
}

; Function Attrs: inlinehint mustprogress uwtable
define linkonce_odr hidden void @_ZNSt3__118__libcpp_refstringC2B8ne210000EPKc(ptr noundef nonnull align 8 dereferenceable(8) %0, ptr noundef %1) unnamed_addr #2 comdat align 2 {
  %3 = alloca ptr, align 8
  %4 = alloca ptr, align 8
  %5 = alloca i64, align 8
  %6 = alloca ptr, align 8
  %7 = alloca ptr, align 8
  store ptr %0, ptr %3, align 8, !tbaa !15
  store ptr %1, ptr %4, align 8, !tbaa !17
  %8 = load ptr, ptr %3, align 8
  call void @llvm.lifetime.start.p0(i64 8, ptr %5) #12
  %9 = load ptr, ptr %4, align 8, !tbaa !17
  %10 = call i64 @strlen(ptr noundef %9) #13
  store i64 %10, ptr %5, align 8, !tbaa !19
  call void @llvm.lifetime.start.p0(i64 8, ptr %6) #12
  %11 = load i64, ptr %5, align 8, !tbaa !19
  %12 = add i64 24, %11
  %13 = add i64 %12, 1
  %14 = call noalias noundef nonnull ptr @_Znwm(i64 noundef %13) #14
  store ptr %14, ptr %6, align 8, !tbaa !21
  %15 = load i64, ptr %5, align 8, !tbaa !19
  %16 = load ptr, ptr %6, align 8, !tbaa !21
  %17 = getelementptr inbounds nuw %"struct.std::__1::__refstring_imp::(anonymous namespace)::_Rep_base", ptr %16, i32 0, i32 0
  store i64 %15, ptr %17, align 8, !tbaa !23
  %18 = load i64, ptr %5, align 8, !tbaa !19
  %19 = load ptr, ptr %6, align 8, !tbaa !21
  %20 = getelementptr inbounds nuw %"struct.std::__1::__refstring_imp::(anonymous namespace)::_Rep_base", ptr %19, i32 0, i32 1
  store i64 %18, ptr %20, align 8, !tbaa !26
  %21 = load ptr, ptr %6, align 8, !tbaa !21
  %22 = getelementptr inbounds nuw %"struct.std::__1::__refstring_imp::(anonymous namespace)::_Rep_base", ptr %21, i32 0, i32 2
  store i32 0, ptr %22, align 8, !tbaa !27
  call void @llvm.lifetime.start.p0(i64 8, ptr %7) #12
  %23 = load ptr, ptr %6, align 8, !tbaa !21
  %24 = call noundef ptr @_ZNSt3__115__refstring_imp12_GLOBAL__N_113data_from_repB8ne210000EPNS1_9_Rep_baseE(ptr noundef %23) #12
  store ptr %24, ptr %7, align 8, !tbaa !17
  %25 = load ptr, ptr %7, align 8, !tbaa !17
  %26 = load ptr, ptr %4, align 8, !tbaa !17
  %27 = load i64, ptr %5, align 8, !tbaa !19
  %28 = add i64 %27, 1
  call void @llvm.memcpy.p0.p0.i64(ptr align 1 %25, ptr align 1 %26, i64 %28, i1 false)
  %29 = load ptr, ptr %7, align 8, !tbaa !17
  %30 = getelementptr inbounds nuw %"class.std::__1::__libcpp_refstring", ptr %8, i32 0, i32 0
  store ptr %29, ptr %30, align 8, !tbaa !28
  call void @llvm.lifetime.end.p0(i64 8, ptr %7) #12
  call void @llvm.lifetime.end.p0(i64 8, ptr %6) #12
  call void @llvm.lifetime.end.p0(i64 8, ptr %5) #12
  ret void
}

; Function Attrs: mustprogress nounwind uwtable
define linkonce_odr hidden void @_ZNSt9exceptionC2B8ne210000Ev(ptr noundef nonnull align 8 dereferenceable(8) %0) unnamed_addr #1 comdat align 2 {
  %2 = alloca ptr, align 8
  store ptr %0, ptr %2, align 8, !tbaa !13
  %3 = load ptr, ptr %2, align 8
  store ptr getelementptr inbounds inrange(-16, 24) ({ [5 x ptr] }, ptr @_ZTVSt9exception, i32 0, i32 0, i32 2), ptr %3, align 8, !tbaa !11
  ret void
}

; Function Attrs: mustprogress uwtable
define dso_local void @_ZNSt11logic_errorC2EPKc(ptr noundef nonnull align 8 dereferenceable(16) %0, ptr noundef %1) unnamed_addr #0 align 2 personality ptr @__gxx_personality_v0 {
  %3 = alloca ptr, align 8
  %4 = alloca ptr, align 8
  %5 = alloca ptr, align 8
  %6 = alloca i32, align 4
  store ptr %0, ptr %3, align 8, !tbaa !4
  store ptr %1, ptr %4, align 8, !tbaa !17
  %7 = load ptr, ptr %3, align 8
  call void @_ZNSt9exceptionC2B8ne210000Ev(ptr noundef nonnull align 8 dereferenceable(8) %7) #12
  store ptr getelementptr inbounds inrange(-16, 24) ({ [5 x ptr] }, ptr @_ZTVSt11logic_error, i32 0, i32 0, i32 2), ptr %7, align 8, !tbaa !11
  %8 = getelementptr inbounds nuw %"class.std::logic_error", ptr %7, i32 0, i32 1
  %9 = load ptr, ptr %4, align 8, !tbaa !17
  invoke void @_ZNSt3__118__libcpp_refstringC2B8ne210000EPKc(ptr noundef nonnull align 8 dereferenceable(8) %8, ptr noundef %9)
          to label %10 unwind label %11

10:                                               ; preds = %2
  ret void

11:                                               ; preds = %2
  %12 = landingpad { ptr, i32 }
          cleanup
  %13 = extractvalue { ptr, i32 } %12, 0
  store ptr %13, ptr %5, align 8
  %14 = extractvalue { ptr, i32 } %12, 1
  store i32 %14, ptr %6, align 4
  call void @_ZNSt9exceptionD2Ev(ptr noundef nonnull align 8 dereferenceable(8) %7) #12
  br label %15

15:                                               ; preds = %11
  %16 = load ptr, ptr %5, align 8
  %17 = load i32, ptr %6, align 4
  %18 = insertvalue { ptr, i32 } poison, ptr %16, 0
  %19 = insertvalue { ptr, i32 } %18, i32 %17, 1
  resume { ptr, i32 } %19
}